target datalayout = "e-m:e-p270:32:32-p271:32:32-p272:64:64-i64:64-i128:128-f80:128-n8:16:32:64-S128"
target triple = "x86_64-pc-linux-gnu"

%"class.std::__cxx11::basic_string" = type { %"struct.std::__cxx11::basic_string<char>::_Alloc_hider", i64, %union.anon }
%"struct.std::__cxx11::basic_string<char>::_Alloc_hider" = type { ptr }
%union.anon = type { i64, [8 x i8] }
%"class.cv::Size_" = type { i32, i32 }
%"class.std::allocator" = type { i8 }
%"class.cv::xobjdetect::CvLBPEvaluator" = type <{ %"class.cv::xobjdetect::CvFeatureEvaluator", %"class.std::vector", %"class.cv::Mat", %"class.cv::Mat", i32, [4 x i8] }>
%"class.cv::xobjdetect::CvFeatureEvaluator" = type { ptr, i32, i32, i32, %"class.cv::Size_", ptr, %"class.cv::Mat" }
%"class.std::vector" = type { %"struct.std::_Vector_base" }
%"struct.std::_Vector_base" = type { %"struct.std::_Vector_base<cv::xobjdetect::CvLBPEvaluator::Feature, std::allocator<cv::xobjdetect::CvLBPEvaluator::Feature>>::_Vector_impl" }
%"struct.std::_Vector_base<cv::xobjdetect::CvLBPEvaluator::Feature, std::allocator<cv::xobjdetect::CvLBPEvaluator::Feature>>::_Vector_impl" = type { %"struct.std::_Vector_base<cv::xobjdetect::CvLBPEvaluator::Feature, std::allocator<cv::xobjdetect::CvLBPEvaluator::Feature>>::_Vector_impl_data" }
%"struct.std::_Vector_base<cv::xobjdetect::CvLBPEvaluator::Feature, std::allocator<cv::xobjdetect::CvLBPEvaluator::Feature>>::_Vector_impl_data" = type { ptr, ptr, ptr }
%"class.cv::Mat" = type { i32, i32, i32, i32, ptr, ptr, ptr, ptr, ptr, ptr, %"struct.cv::MatSize", %"struct.cv::MatStep" }
%"struct.cv::MatSize" = type { ptr }
%"struct.cv::MatStep" = type { ptr, [2 x i64] }

@.str.1 = private unnamed_addr constant [20 x i8] c"_maxSampleCount > 0\00", align 1
@__func__._ZN2cv10xobjdetect14CvLBPEvaluator4initEPKNS0_15CvFeatureParamsEiNS_5Size_IiEE = private unnamed_addr constant [5 x i8] c"init\00", align 1
@.str.2 = private unnamed_addr constant [146 x i8] c"generated/home/dtcxzyw/WorkSpace/Projects/compilers/llvm-opt-benchmark/bench/opencv/contrib/opencv_contrib/modules/xobjdetect/src/lbpfeatures.cpp\00", align 1

; Function Attrs: mustprogress uwtable
define hidden void @_ZN2cv10xobjdetect14CvLBPEvaluator4initEPKNS0_15CvFeatureParamsEiNS_5Size_IiEE(ptr noundef nonnull align 8 dereferenceable(356) %0, ptr noundef %1, i32 noundef %2, i64 %3) unnamed_addr #4 align 2 personality ptr @__gxx_personality_v0 {
  %5 = alloca %"class.cv::Size_", align 4
  %6 = alloca ptr, align 8
  %7 = alloca ptr, align 8
  %8 = alloca i32, align 4
  %9 = alloca %"class.std::__cxx11::basic_string", align 8
  %10 = alloca %"class.std::allocator", align 1
  %11 = alloca ptr, align 8
  %12 = alloca i32, align 4
  %13 = alloca %"class.cv::Size_", align 4
  store i64 %3, ptr %5, align 4
  store ptr %0, ptr %6, align 8
  store ptr %1, ptr %7, align 8
  store i32 %2, ptr %8, align 4
  %14 = load ptr, ptr %6, align 8
  br label %15

15:                                               ; preds = %4
  %16 = load i32, ptr %8, align 4
  %17 = icmp sgt i32 %16, 0
  br i1 %17, label %18, label %19

18:                                               ; preds = %15
  br label %31

19:                                               ; preds = %15
  call void @_ZNSaIcEC1Ev(ptr noundef nonnull align 1 dereferenceable(1) %10) #3
  invoke void @_ZNSt7__cxx1112basic_stringIcSt11char_traitsIcESaIcEEC1EPKcRKS3_(ptr noundef nonnull align 8 dereferenceable(32) %9, ptr noundef @.str.1, ptr noundef nonnull align 1 dereferenceable(1) %10)
          to label %20 unwind label %22

20:                                               ; preds = %19
  invoke void @_ZN2cv5errorEiRKNSt7__cxx1112basic_stringIcSt11char_traitsIcESaIcEEEPKcS9_i(i32 noundef -215, ptr noundef nonnull align 8 dereferenceable(32) %9, ptr noundef @__func__._ZN2cv10xobjdetect14CvLBPEvaluator4initEPKNS0_15CvFeatureParamsEiNS_5Size_IiEE, ptr noundef @.str.2, i32 noundef 59) #12
          to label %21 unwind label %26

21:                                               ; preds = %20
  unreachable

22:                                               ; preds = %19
  %23 = landingpad { ptr, i32 }
          cleanup
  %24 = extractvalue { ptr, i32 } %23, 0
  store ptr %24, ptr %11, align 8
  %25 = extractvalue { ptr, i32 } %23, 1
  store i32 %25, ptr %12, align 4
  br label %30

26:                                               ; preds = %20
  %27 = landingpad { ptr, i32 }
          cleanup
  %28 = extractvalue { ptr, i32 } %27, 0
  store ptr %28, ptr %11, align 8
  %29 = extractvalue { ptr, i32 } %27, 1
  store i32 %29, ptr %12, align 4
  call void @_ZNSt7__cxx1112basic_stringIcSt11char_traitsIcESaIcEED1Ev(ptr noundef nonnull align 8 dereferenceable(32) %9) #3
  br label %30

30:                                               ; preds = %26, %22
  call void @_ZNSaIcED1Ev(ptr noundef nonnull align 1 dereferenceable(1) %10) #3
  br label %45

31:                                               ; preds = %18
  br label %32

32:                                               ; preds = %31
  %33 = getelementptr inbounds %"class.cv::xobjdetect::CvLBPEvaluator", ptr %14, i32 0, i32 2
  %34 = load i32, ptr %8, align 4
  %35 = getelementptr inbounds %"class.cv::Size_", ptr %5, i32 0, i32 0
  %36 = load i32, ptr %35, align 4
  %37 = add nsw i32 %36, 1
  %38 = getelementptr inbounds %"class.cv::Size_", ptr %5, i32 0, i32 1
  %39 = load i32, ptr %38, align 4
  %40 = add nsw i32 %39, 1
  %41 = mul nsw i32 %37, %40
  call void @_ZN2cv3Mat6createEiii(ptr noundef nonnull align 8 dereferenceable(96) %33, i32 noundef %34, i32 noundef %41, i32 noundef 4)
  %42 = load ptr, ptr %7, align 8
  %43 = load i32, ptr %8, align 4
  call void @llvm.memcpy.p0.p0.i64(ptr align 4 %13, ptr align 4 %5, i64 8, i1 false)
  %44 = load i64, ptr %13, align 4
  call void @_ZN2cv10xobjdetect18CvFeatureEvaluator4initEPKNS0_15CvFeatureParamsEiNS_5Size_IiEE(ptr noundef nonnull align 8 dereferenceable(136) %14, ptr noundef %42, i32 noundef %43, i64 %44)
  ret void

45:                                               ; preds = %30
  %46 = load ptr, ptr %11, align 8
  %47 = load i32, ptr %12, align 4
  %48 = insertvalue { ptr, i32 } poison, ptr %46, 0
  %49 = insertvalue { ptr, i32 } %48, i32 %47, 1
  resume { ptr, i32 } %49
}