; Function Attrs: mustprogress uwtable
define hidden void @_ZN2cv10xobjdetect14CvLBPEvaluator4initEPKNS0_15CvFeatureParamsEiNS_5Size_IiEE(ptr noundef nonnull align 8 dereferenceable(356) %0, ptr noundef %1, i32 noundef %2, i64 %3) unnamed_addr #3 align 2 personality ptr @__gxx_personality_v0 {
  %5 = alloca %"class.std::__cxx11::basic_string", align 8
  %6 = alloca %"class.std::allocator", align 1
  %7 = icmp sgt i32 %2, 0
  br i1 %7, label %16, label %8

8:                                                ; preds = %4
  call void @_ZNSaIcEC1Ev(ptr noundef nonnull align 1 dereferenceable(1) %6) #15
  invoke void @_ZNSt7__cxx1112basic_stringIcSt11char_traitsIcESaIcEEC1EPKcRKS3_(ptr noundef nonnull align 8 dereferenceable(32) %5, ptr noundef nonnull @.str.1, ptr noundef nonnull align 1 dereferenceable(1) %6)
          to label %9 unwind label %11

9:                                                ; preds = %8
  invoke void @_ZN2cv5errorEiRKNSt7__cxx1112basic_stringIcSt11char_traitsIcESaIcEEEPKcS9_i(i32 noundef -215, ptr noundef nonnull align 8 dereferenceable(32) %5, ptr noundef nonnull @__func__._ZN2cv10xobjdetect14CvLBPEvaluator4initEPKNS0_15CvFeatureParamsEiNS_5Size_IiEE, ptr noundef nonnull @.str.2, i32 noundef 59) #16
          to label %10 unwind label %13

10:                                               ; preds = %9
  unreachable

11:                                               ; preds = %8
  %12 = landingpad { ptr, i32 }
          cleanup
  br label %15

13:                                               ; preds = %9
  %14 = landingpad { ptr, i32 }
          cleanup
  call void @_ZNSt7__cxx1112basic_stringIcSt11char_traitsIcESaIcEED1Ev(ptr noundef nonnull align 8 dereferenceable(32) %5) #15
  br label %15

15:                                               ; preds = %13, %11
  %.pn = phi { ptr, i32 } [ %14, %13 ], [ %12, %11 ]
  call void @_ZNSaIcED1Ev(ptr noundef nonnull align 1 dereferenceable(1) %6) #15
  resume { ptr, i32 } %.pn

16:                                               ; preds = %4
  %.sroa.3.0.extract.shift = lshr i64 %3, 32
  %.sroa.3.0.extract.trunc = trunc nuw i64 %.sroa.3.0.extract.shift to i32
  %.sroa.06.0.extract.trunc = trunc i64 %3 to i32
  %17 = getelementptr inbounds i8, ptr %0, i64 160
  %18 = add nsw i32 %.sroa.06.0.extract.trunc, 1
  %19 = add nsw i32 %.sroa.3.0.extract.trunc, 1
  %20 = mul nsw i32 %19, %18
  tail call void @_ZN2cv3Mat6createEiii(ptr noundef nonnull align 8 dereferenceable(96) %17, i32 noundef %2, i32 noundef %20, i32 noundef 4)
  tail call void @_ZN2cv10xobjdetect18CvFeatureEvaluator4initEPKNS0_15CvFeatureParamsEiNS_5Size_IiEE(ptr noundef nonnull align 8 dereferenceable(136) %0, ptr noundef %1, i32 noundef %2, i64 %3)
  ret void
}